target datalayout = "e-m:e-p270:32:32-p271:32:32-p272:64:64-i64:64-i128:128-f80:128-n8:16:32:64-S128"
target triple = "x86_64-pc-linux-gnu"

%struct.global_State = type { ptr, ptr, %struct.GCState, %struct.GCstr, i8, i8, i8, i8, %struct.StrInternState, i32, %struct.GCRef, %struct.SBuf, %union.TValue, %union.TValue, %struct.Node, %union.TValue, %struct.GCupval, i32, i32, ptr, ptr, ptr, i32, i32, %struct.GCRef, %struct.MRef, %struct.MRef, %struct.PRNGState, [39 x %struct.GCRef] }
%struct.GCState = type { i64, i64, i8, i8, i8, i8, i32, %struct.GCRef, %struct.MRef, %struct.GCRef, %struct.GCRef, %struct.GCRef, %struct.GCRef, i64, i64, i32, i32, %struct.MRef }
%struct.GCstr = type { %struct.GCRef, i8, i8, i8, i8, i32, i32, i32 }
%struct.StrInternState = type { ptr, i32, i32, i32, i8, i8, i8, i8, i64 }
%struct.SBuf = type { ptr, ptr, ptr, %struct.MRef }
%struct.Node = type { %union.TValue, %union.TValue, %struct.MRef }
%union.TValue = type { i64 }
%struct.GCupval = type { %struct.GCRef, i8, i8, i8, i8, %union.anon, %struct.MRef, i32 }
%union.anon = type { %struct.anon.1 }
%struct.anon.1 = type { %struct.GCRef, %struct.GCRef }
%struct.GCRef = type { i64 }
%struct.MRef = type { i64 }
%struct.PRNGState = type { [4 x i64] }
%struct.lua_State = type { %struct.GCRef, i8, i8, i8, i8, %struct.MRef, %struct.GCRef, ptr, ptr, %struct.MRef, %struct.MRef, %struct.GCRef, %struct.GCRef, ptr, i32 }
%struct.GChead = type { %struct.GCRef, i8, i8, i8, i8, %struct.GCRef, %struct.GCRef, %struct.GCRef }
%struct.GCfuncC = type { %struct.GCRef, i8, i8, i8, i8, %struct.GCRef, %struct.GCRef, %struct.MRef, ptr, [1 x %union.TValue] }
%struct.GCfuncL = type { %struct.GCRef, i8, i8, i8, i8, %struct.GCRef, %struct.GCRef, %struct.MRef, [1 x %struct.GCRef] }
%struct.GCproto = type { %struct.GCRef, i8, i8, i8, i8, i32, i32, %struct.GCRef, %struct.MRef, %struct.MRef, i32, i32, i32, i8, i8, i16, %struct.GCRef, i32, i32, %struct.MRef, %struct.MRef, %struct.MRef }

; Function Attrs: nounwind uwtable
define internal i32 @gc_traverse_frames(ptr noundef %0, ptr noundef %1) #0 {
  %3 = alloca ptr, align 8
  %4 = alloca ptr, align 8
  %5 = alloca ptr, align 8
  %6 = alloca ptr, align 8
  %7 = alloca ptr, align 8
  %8 = alloca ptr, align 8
  %9 = alloca ptr, align 8
  store ptr %0, ptr %3, align 8, !tbaa !4
  store ptr %1, ptr %4, align 8, !tbaa !37
  call void @llvm.lifetime.start.p0(i64 8, ptr %5) #7
  call void @llvm.lifetime.start.p0(i64 8, ptr %6) #7
  %10 = load ptr, ptr %4, align 8, !tbaa !37
  %11 = getelementptr inbounds nuw %struct.lua_State, ptr %10, i32 0, i32 8
  %12 = load ptr, ptr %11, align 8, !tbaa !71
  %13 = getelementptr inbounds %union.TValue, ptr %12, i64 -1
  store ptr %13, ptr %6, align 8, !tbaa !45
  call void @llvm.lifetime.start.p0(i64 8, ptr %7) #7
  %14 = load ptr, ptr %4, align 8, !tbaa !37
  %15 = getelementptr inbounds nuw %struct.lua_State, ptr %14, i32 0, i32 10
  %16 = getelementptr inbounds nuw %struct.MRef, ptr %15, i32 0, i32 0
  %17 = load i64, ptr %16, align 8, !tbaa !72
  %18 = inttoptr i64 %17 to ptr
  store ptr %18, ptr %7, align 8, !tbaa !45
  %19 = load ptr, ptr %4, align 8, !tbaa !37
  %20 = getelementptr inbounds nuw %struct.lua_State, ptr %19, i32 0, i32 7
  %21 = load ptr, ptr %20, align 8, !tbaa !93
  %22 = getelementptr inbounds %union.TValue, ptr %21, i64 -1
  store ptr %22, ptr %5, align 8, !tbaa !45
  br label %23

23:                                               ; preds = %86, %2
  %24 = load ptr, ptr %5, align 8, !tbaa !45
  %25 = load ptr, ptr %7, align 8, !tbaa !45
  %26 = getelementptr inbounds %union.TValue, ptr %25, i64 1
  %27 = icmp ugt ptr %24, %26
  br i1 %27, label %28, label %88

28:                                               ; preds = %23
  call void @llvm.lifetime.start.p0(i64 8, ptr %8) #7
  %29 = load ptr, ptr %5, align 8, !tbaa !45
  %30 = getelementptr inbounds %union.TValue, ptr %29, i64 -1
  %31 = getelementptr inbounds nuw %struct.GCRef, ptr %30, i32 0, i32 0
  %32 = load i64, ptr %31, align 8, !tbaa !30
  %33 = and i64 %32, 140737488355327
  %34 = inttoptr i64 %33 to ptr
  store ptr %34, ptr %8, align 8, !tbaa !120
  call void @llvm.lifetime.start.p0(i64 8, ptr %9) #7
  %35 = load ptr, ptr %5, align 8, !tbaa !45
  store ptr %35, ptr %9, align 8, !tbaa !45
  %36 = load ptr, ptr %8, align 8, !tbaa !120
  %37 = getelementptr inbounds nuw %struct.GCfuncC, ptr %36, i32 0, i32 3
  %38 = load i8, ptr %37, align 2, !tbaa !30
  %39 = zext i8 %38 to i32
  %40 = icmp eq i32 %39, 0
  br i1 %40, label %41, label %54

41:                                               ; preds = %28
  %42 = load ptr, ptr %8, align 8, !tbaa !120
  %43 = getelementptr inbounds nuw %struct.GCfuncL, ptr %42, i32 0, i32 7
  %44 = getelementptr inbounds nuw %struct.MRef, ptr %43, i32 0, i32 0
  %45 = load i64, ptr %44, align 8, !tbaa !30
  %46 = inttoptr i64 %45 to ptr
  %47 = getelementptr inbounds i8, ptr %46, i64 -104
  %48 = getelementptr inbounds nuw %struct.GCproto, ptr %47, i32 0, i32 4
  %49 = load i8, ptr %48, align 1, !tbaa !94
  %50 = zext i8 %49 to i32
  %51 = load ptr, ptr %9, align 8, !tbaa !45
  %52 = sext i32 %50 to i64
  %53 = getelementptr inbounds %union.TValue, ptr %51, i64 %52
  store ptr %53, ptr %9, align 8, !tbaa !45
  br label %54

54:                                               ; preds = %41, %28
  %55 = load ptr, ptr %9, align 8, !tbaa !45
  %56 = load ptr, ptr %6, align 8, !tbaa !45
  %57 = icmp ugt ptr %55, %56
  br i1 %57, label %58, label %60

58:                                               ; preds = %54
  %59 = load ptr, ptr %9, align 8, !tbaa !45
  store ptr %59, ptr %6, align 8, !tbaa !45
  br label %60

60:                                               ; preds = %58, %54
  call void @llvm.lifetime.end.p0(i64 8, ptr %9) #7
  call void @llvm.lifetime.end.p0(i64 8, ptr %8) #7
  br label %61

61:                                               ; preds = %60
  %62 = load ptr, ptr %5, align 8, !tbaa !45
  %63 = load i64, ptr %62, align 8, !tbaa !30
  %64 = and i64 %63, 3
  %65 = icmp eq i64 %64, 0
  br i1 %65, label %66, label %79

66:                                               ; preds = %61
  %67 = load ptr, ptr %5, align 8, !tbaa !45
  %68 = load ptr, ptr %5, align 8, !tbaa !45
  %69 = load i64, ptr %68, align 8, !tbaa !30
  %70 = inttoptr i64 %69 to ptr
  %71 = getelementptr inbounds i32, ptr %70, i64 -1
  %72 = load i32, ptr %71, align 4, !tbaa !9
  %73 = lshr i32 %72, 8
  %74 = and i32 %73, 255
  %75 = add i32 2, %74
  %76 = zext i32 %75 to i64
  %77 = sub i64 0, %76
  %78 = getelementptr inbounds %union.TValue, ptr %67, i64 %77
  br label %86

79:                                               ; preds = %61
  %80 = load ptr, ptr %5, align 8, !tbaa !45
  %81 = load ptr, ptr %5, align 8, !tbaa !45
  %82 = load i64, ptr %81, align 8, !tbaa !30
  %83 = and i64 %82, -8
  %84 = sub i64 0, %83
  %85 = getelementptr inbounds i8, ptr %80, i64 %84
  br label %86

86:                                               ; preds = %79, %66
  %87 = phi ptr [ %78, %66 ], [ %85, %79 ]
  store ptr %87, ptr %5, align 8, !tbaa !45
  br label %23, !llvm.loop !156

88:                                               ; preds = %23
  %89 = load ptr, ptr %6, align 8, !tbaa !45
  %90 = getelementptr inbounds nuw %union.TValue, ptr %89, i32 1
  store ptr %90, ptr %6, align 8, !tbaa !45
  %91 = load ptr, ptr %6, align 8, !tbaa !45
  %92 = load ptr, ptr %4, align 8, !tbaa !37
  %93 = getelementptr inbounds nuw %struct.lua_State, ptr %92, i32 0, i32 9
  %94 = getelementptr inbounds nuw %struct.MRef, ptr %93, i32 0, i32 0
  %95 = load i64, ptr %94, align 8, !tbaa !157
  %96 = inttoptr i64 %95 to ptr
  %97 = icmp ugt ptr %91, %96
  br i1 %97, label %98, label %104

98:                                               ; preds = %88
  %99 = load ptr, ptr %4, align 8, !tbaa !37
  %100 = getelementptr inbounds nuw %struct.lua_State, ptr %99, i32 0, i32 9
  %101 = getelementptr inbounds nuw %struct.MRef, ptr %100, i32 0, i32 0
  %102 = load i64, ptr %101, align 8, !tbaa !157
  %103 = inttoptr i64 %102 to ptr
  store ptr %103, ptr %6, align 8, !tbaa !45
  br label %104

104:                                              ; preds = %98, %88
  %105 = load ptr, ptr %6, align 8, !tbaa !45
  %106 = load ptr, ptr %7, align 8, !tbaa !45
  %107 = ptrtoint ptr %105 to i64
  %108 = ptrtoint ptr %106 to i64
  %109 = sub i64 %107, %108
  %110 = sdiv exact i64 %109, 8
  %111 = trunc i64 %110 to i32
  call void @llvm.lifetime.end.p0(i64 8, ptr %7) #7
  call void @llvm.lifetime.end.p0(i64 8, ptr %6) #7
  call void @llvm.lifetime.end.p0(i64 8, ptr %5) #7
  ret i32 %111
}

; Function Attrs: nounwind uwtable
define internal void @gc_traverse_thread(ptr noundef %0, ptr noundef %1) #0 {
  %3 = alloca ptr, align 8
  %4 = alloca ptr, align 8
  %5 = alloca ptr, align 8
  %6 = alloca ptr, align 8
  store ptr %0, ptr %3, align 8, !tbaa !4
  store ptr %1, ptr %4, align 8, !tbaa !37
  call void @llvm.lifetime.start.p0(i64 8, ptr %5) #7
  call void @llvm.lifetime.start.p0(i64 8, ptr %6) #7
  %7 = load ptr, ptr %4, align 8, !tbaa !37
  %8 = getelementptr inbounds nuw %struct.lua_State, ptr %7, i32 0, i32 8
  %9 = load ptr, ptr %8, align 8, !tbaa !71
  store ptr %9, ptr %6, align 8, !tbaa !45
  %10 = load ptr, ptr %4, align 8, !tbaa !37
  %11 = getelementptr inbounds nuw %struct.lua_State, ptr %10, i32 0, i32 10
  %12 = getelementptr inbounds nuw %struct.MRef, ptr %11, i32 0, i32 0
  %13 = load i64, ptr %12, align 8, !tbaa !72
  %14 = inttoptr i64 %13 to ptr
  %15 = getelementptr inbounds %union.TValue, ptr %14, i64 1
  %16 = getelementptr inbounds %union.TValue, ptr %15, i64 1
  store ptr %16, ptr %5, align 8, !tbaa !45
  br label %17

17:                                               ; preds = %47, %2
  %18 = load ptr, ptr %5, align 8, !tbaa !45
  %19 = load ptr, ptr %6, align 8, !tbaa !45
  %20 = icmp ult ptr %18, %19
  br i1 %20, label %21, label %50

21:                                               ; preds = %17
  %22 = load ptr, ptr %5, align 8, !tbaa !45
  %23 = load i64, ptr %22, align 8, !tbaa !30
  %24 = ashr i64 %23, 47
  %25 = trunc i64 %24 to i32
  %26 = sub i32 %25, -4
  %27 = icmp ugt i32 %26, -10
  br i1 %27, label %28, label %46

28:                                               ; preds = %21
  %29 = load ptr, ptr %5, align 8, !tbaa !45
  %30 = getelementptr inbounds nuw %struct.GCRef, ptr %29, i32 0, i32 0
  %31 = load i64, ptr %30, align 8, !tbaa !30
  %32 = and i64 %31, 140737488355327
  %33 = inttoptr i64 %32 to ptr
  %34 = getelementptr inbounds nuw %struct.GChead, ptr %33, i32 0, i32 1
  %35 = load i8, ptr %34, align 8, !tbaa !30
  %36 = zext i8 %35 to i32
  %37 = and i32 %36, 3
  %38 = icmp ne i32 %37, 0
  br i1 %38, label %39, label %46

39:                                               ; preds = %28
  %40 = load ptr, ptr %3, align 8, !tbaa !4
  %41 = load ptr, ptr %5, align 8, !tbaa !45
  %42 = getelementptr inbounds nuw %struct.GCRef, ptr %41, i32 0, i32 0
  %43 = load i64, ptr %42, align 8, !tbaa !30
  %44 = and i64 %43, 140737488355327
  %45 = inttoptr i64 %44 to ptr
  call void @gc_mark(ptr noundef %40, ptr noundef %45)
  br label %46

46:                                               ; preds = %39, %28, %21
  br label %47

47:                                               ; preds = %46
  %48 = load ptr, ptr %5, align 8, !tbaa !45
  %49 = getelementptr inbounds nuw %union.TValue, ptr %48, i32 1
  store ptr %49, ptr %5, align 8, !tbaa !45
  br label %17, !llvm.loop !145

50:                                               ; preds = %17
  %51 = load ptr, ptr %3, align 8, !tbaa !4
  %52 = getelementptr inbounds nuw %struct.global_State, ptr %51, i32 0, i32 2
  %53 = getelementptr inbounds nuw %struct.GCState, ptr %52, i32 0, i32 3
  %54 = load i8, ptr %53, align 1, !tbaa !84
  %55 = zext i8 %54 to i32
  %56 = icmp eq i32 %55, 2
  br i1 %56, label %57, label %78

57:                                               ; preds = %50
  %58 = load ptr, ptr %4, align 8, !tbaa !37
  %59 = getelementptr inbounds nuw %struct.lua_State, ptr %58, i32 0, i32 10
  %60 = getelementptr inbounds nuw %struct.MRef, ptr %59, i32 0, i32 0
  %61 = load i64, ptr %60, align 8, !tbaa !72
  %62 = inttoptr i64 %61 to ptr
  %63 = load ptr, ptr %4, align 8, !tbaa !37
  %64 = getelementptr inbounds nuw %struct.lua_State, ptr %63, i32 0, i32 14
  %65 = load i32, ptr %64, align 8, !tbaa !124
  %66 = zext i32 %65 to i64
  %67 = getelementptr inbounds nuw %union.TValue, ptr %62, i64 %66
  store ptr %67, ptr %6, align 8, !tbaa !45
  br label %68

68:                                               ; preds = %74, %57
  %69 = load ptr, ptr %5, align 8, !tbaa !45
  %70 = load ptr, ptr %6, align 8, !tbaa !45
  %71 = icmp ult ptr %69, %70
  br i1 %71, label %72, label %77

72:                                               ; preds = %68
  %73 = load ptr, ptr %5, align 8, !tbaa !45
  store i64 -1, ptr %73, align 8, !tbaa !30
  br label %74

74:                                               ; preds = %72
  %75 = load ptr, ptr %5, align 8, !tbaa !45
  %76 = getelementptr inbounds nuw %union.TValue, ptr %75, i32 1
  store ptr %76, ptr %5, align 8, !tbaa !45
  br label %68, !llvm.loop !146

77:                                               ; preds = %68
  br label %78

78:                                               ; preds = %77, %50
  %79 = load ptr, ptr %4, align 8, !tbaa !37
  %80 = getelementptr inbounds nuw %struct.lua_State, ptr %79, i32 0, i32 12
  %81 = getelementptr inbounds nuw %struct.GCRef, ptr %80, i32 0, i32 0
  %82 = load i64, ptr %81, align 8, !tbaa !147
  %83 = inttoptr i64 %82 to ptr
  %84 = getelementptr inbounds nuw %struct.GChead, ptr %83, i32 0, i32 1
  %85 = load i8, ptr %84, align 8, !tbaa !30
  %86 = zext i8 %85 to i32
  %87 = and i32 %86, 3
  %88 = icmp ne i32 %87, 0
  br i1 %88, label %89, label %96

89:                                               ; preds = %78
  %90 = load ptr, ptr %3, align 8, !tbaa !4
  %91 = load ptr, ptr %4, align 8, !tbaa !37
  %92 = getelementptr inbounds nuw %struct.lua_State, ptr %91, i32 0, i32 12
  %93 = getelementptr inbounds nuw %struct.GCRef, ptr %92, i32 0, i32 0
  %94 = load i64, ptr %93, align 8, !tbaa !147
  %95 = inttoptr i64 %94 to ptr
  call void @gc_mark(ptr noundef %90, ptr noundef %95)
  br label %96

96:                                               ; preds = %89, %78
  %97 = load ptr, ptr %4, align 8, !tbaa !37
  %98 = load ptr, ptr %3, align 8, !tbaa !4
  %99 = load ptr, ptr %4, align 8, !tbaa !37
  %100 = call i32 @gc_traverse_frames(ptr noundef %98, ptr noundef %99)
  call void @lj_state_shrinkstack(ptr noundef %97, i32 noundef %100)
  call void @llvm.lifetime.end.p0(i64 8, ptr %6) #7
  call void @llvm.lifetime.end.p0(i64 8, ptr %5) #7
  ret void
}