; Function Attrs: nounwind uwtable
define internal fastcc void @gc_traverse_thread(ptr noundef %0, ptr noundef %1) unnamed_addr #0 {
  %3 = getelementptr inbounds nuw i8, ptr %1, i64 40
  %4 = load ptr, ptr %3, align 8, !tbaa !57
  %5 = getelementptr inbounds nuw i8, ptr %1, i64 56
  %6 = load i64, ptr %5, align 8, !tbaa !58
  %7 = inttoptr i64 %6 to ptr
  %8 = getelementptr inbounds nuw i8, ptr %7, i64 16
  %9 = icmp ult ptr %8, %4
  br i1 %9, label %.lr.ph, label %._crit_edge

.lr.ph:                                           ; preds = %2, %22
  %.023 = phi ptr [ %23, %22 ], [ %8, %2 ]
  %10 = load i64, ptr %.023, align 8, !tbaa !23
  %11 = ashr i64 %10, 47
  %12 = trunc nsw i64 %11 to i32
  %13 = add nsw i32 %12, 13
  %14 = icmp ult i32 %13, 9
  br i1 %14, label %15, label %22

15:                                               ; preds = %.lr.ph
  %16 = and i64 %10, 140737488355327
  %17 = inttoptr i64 %16 to ptr
  %18 = getelementptr inbounds nuw i8, ptr %17, i64 8
  %19 = load i8, ptr %18, align 8, !tbaa !23
  %20 = and i8 %19, 3
  %.not22 = icmp eq i8 %20, 0
  br i1 %.not22, label %22, label %21

21:                                               ; preds = %15
  tail call fastcc void @gc_mark(ptr noundef %0, ptr noundef nonnull %17)
  br label %22

22:                                               ; preds = %.lr.ph, %15, %21
  %23 = getelementptr inbounds nuw i8, ptr %.023, i64 8
  %24 = icmp ult ptr %23, %4
  br i1 %24, label %.lr.ph, label %._crit_edge, !llvm.loop !129

._crit_edge:                                      ; preds = %22, %2
  %.0.lcssa = phi ptr [ %8, %2 ], [ %23, %22 ]
  %.0.lcssa27 = ptrtoint ptr %.0.lcssa to i64
  %25 = getelementptr inbounds nuw i8, ptr %0, i64 33
  %26 = load i8, ptr %25, align 1, !tbaa !70
  %27 = icmp eq i8 %26, 2
  br i1 %27, label %28, label %.loopexit

28:                                               ; preds = %._crit_edge
  %29 = load i64, ptr %5, align 8, !tbaa !58
  %30 = inttoptr i64 %29 to ptr
  %31 = getelementptr inbounds nuw i8, ptr %1, i64 88
  %32 = load i32, ptr %31, align 8, !tbaa !117
  %33 = zext i32 %32 to i64
  %34 = getelementptr inbounds nuw %union.TValue, ptr %30, i64 %33
  %35 = icmp ult ptr %.0.lcssa, %34
  br i1 %35, label %.lr.ph26.preheader, label %.loopexit

.lr.ph26.preheader:                               ; preds = %28
  %36 = shl nuw nsw i64 %33, 3
  %37 = add nuw i64 %29, %36
  %38 = add i64 %.0.lcssa27, 8
  %umax = tail call i64 @llvm.umax.i64(i64 %37, i64 %38)
  %39 = xor i64 %.0.lcssa27, -1
  %40 = add i64 %umax, %39
  %41 = and i64 %40, -8
  %42 = add i64 %41, 8
  tail call void @llvm.memset.p0.i64(ptr nonnull align 8 %.0.lcssa, i8 -1, i64 %42, i1 false), !tbaa !23
  br label %.loopexit

.loopexit:                                        ; preds = %.lr.ph26.preheader, %28, %._crit_edge
  %43 = getelementptr inbounds nuw i8, ptr %1, i64 72
  %44 = load i64, ptr %43, align 8, !tbaa !130
  %45 = inttoptr i64 %44 to ptr
  %46 = getelementptr inbounds nuw i8, ptr %45, i64 8
  %47 = load i8, ptr %46, align 8, !tbaa !23
  %48 = and i8 %47, 3
  %.not = icmp eq i8 %48, 0
  br i1 %.not, label %50, label %49

49:                                               ; preds = %.loopexit
  tail call fastcc void @gc_mark(ptr noundef nonnull %0, ptr noundef nonnull %45)
  br label %50

50:                                               ; preds = %49, %.loopexit
  %51 = load ptr, ptr %3, align 8, !tbaa !57
  %52 = getelementptr inbounds i8, ptr %51, i64 -8
  %53 = load i64, ptr %5, align 8, !tbaa !58
  %54 = inttoptr i64 %53 to ptr
  %55 = getelementptr inbounds nuw i8, ptr %1, i64 32
  %56 = load ptr, ptr %55, align 8, !tbaa !94
  %57 = getelementptr inbounds i8, ptr %56, i64 -8
  %58 = getelementptr inbounds nuw i8, ptr %54, i64 8
  %59 = icmp ugt ptr %57, %58
  br i1 %59, label %.lr.ph.i, label %gc_traverse_frames.exit

.lr.ph.i:                                         ; preds = %50, %94
  %.0242.i = phi ptr [ %95, %94 ], [ %57, %50 ]
  %.0251.i = phi ptr [ %spec.select.i, %94 ], [ %52, %50 ]
  %60 = getelementptr inbounds i8, ptr %.0242.i, i64 -8
  %61 = load i64, ptr %60, align 8, !tbaa !23
  %62 = and i64 %61, 140737488355327
  %63 = inttoptr i64 %62 to ptr
  %64 = getelementptr inbounds nuw i8, ptr %63, i64 10
  %65 = load i8, ptr %64, align 2, !tbaa !23
  %66 = icmp eq i8 %65, 0
  br i1 %66, label %67, label %75

67:                                               ; preds = %.lr.ph.i
  %68 = getelementptr inbounds nuw i8, ptr %63, i64 32
  %69 = load i64, ptr %68, align 8, !tbaa !23
  %70 = inttoptr i64 %69 to ptr
  %71 = getelementptr inbounds i8, ptr %70, i64 -93
  %72 = load i8, ptr %71, align 1, !tbaa !95
  %73 = zext i8 %72 to i64
  %74 = getelementptr inbounds nuw %union.TValue, ptr %.0242.i, i64 %73
  br label %75

75:                                               ; preds = %67, %.lr.ph.i
  %.0.i = phi ptr [ %74, %67 ], [ %.0242.i, %.lr.ph.i ]
  %76 = icmp ugt ptr %.0.i, %.0251.i
  %spec.select.i = select i1 %76, ptr %.0.i, ptr %.0251.i
  %77 = load i64, ptr %.0242.i, align 8, !tbaa !23
  %78 = and i64 %77, 3
  %79 = icmp eq i64 %78, 0
  br i1 %79, label %80, label %90

80:                                               ; preds = %75
  %81 = inttoptr i64 %77 to ptr
  %82 = getelementptr inbounds i8, ptr %81, i64 -4
  %83 = load i32, ptr %82, align 4, !tbaa !110
  %84 = lshr i32 %83, 8
  %85 = and i32 %84, 255
  %86 = add nuw nsw i32 %85, 2
  %87 = zext nneg i32 %86 to i64
  %88 = sub nsw i64 0, %87
  %89 = getelementptr inbounds %union.TValue, ptr %.0242.i, i64 %88
  br label %94

90:                                               ; preds = %75
  %91 = and i64 %77, -8
  %92 = sub i64 0, %91
  %93 = getelementptr inbounds i8, ptr %.0242.i, i64 %92
  br label %94

94:                                               ; preds = %90, %80
  %95 = phi ptr [ %89, %80 ], [ %93, %90 ]
  %96 = icmp ugt ptr %95, %58
  br i1 %96, label %.lr.ph.i, label %gc_traverse_frames.exit, !llvm.loop !131

gc_traverse_frames.exit:                          ; preds = %94, %50
  %.025.lcssa.i = phi ptr [ %52, %50 ], [ %spec.select.i, %94 ]
  %97 = getelementptr inbounds nuw i8, ptr %.025.lcssa.i, i64 8
  %98 = getelementptr inbounds nuw i8, ptr %1, i64 48
  %99 = load i64, ptr %98, align 8, !tbaa !132
  %100 = inttoptr i64 %99 to ptr
  %101 = icmp ugt ptr %97, %100
  %spec.select28.i = select i1 %101, ptr %100, ptr %97
  %102 = ptrtoint ptr %spec.select28.i to i64
  %103 = sub i64 %102, %53
  %104 = lshr exact i64 %103, 3
  %105 = trunc i64 %104 to i32
  tail call void @lj_state_shrinkstack(ptr noundef %1, i32 noundef %105) #8
  ret void
}